; Function Attrs: nounwind uwtable
define range(i64 -1, -9223372036854775808) i64 @H5VLget_connector_id_by_value(i32 noundef %0) local_unnamed_addr #0 {
  %2 = alloca %struct.H5CX_node_t, align 8
  call void @llvm.lifetime.start.p0(i64 480, ptr nonnull %2) #4
  call void @llvm.memset.p0.i64(ptr noundef nonnull align 8 dereferenceable(480) %2, i8 0, i64 480, i1 false)
  %3 = load i8, ptr @H5_libinit_g, align 1, !tbaa !3, !range !7, !noundef !8
  %4 = trunc nuw i8 %3 to i1
  %5 = load i8, ptr @H5_libterm_g, align 1, !range !7
  %6 = trunc nuw i8 %5 to i1
  %7 = select i1 %4, i1 true, i1 %6
  br i1 %7, label %15, label %8, !prof !9

8:                                                ; preds = %1
  %9 = tail call i32 @H5_init_library() #4
  %10 = icmp slt i32 %9, 0
  br i1 %10, label %11, label %._crit_edge, !prof !10

._crit_edge:                                      ; preds = %8
  %.pre = load i8, ptr @H5_libterm_g, align 1, !range !7
  br label %15

11:                                               ; preds = %8
  %12 = load i64, ptr @H5E_FUNC_g, align 8, !tbaa !11
  %13 = load i64, ptr @H5E_CANTINIT_g, align 8, !tbaa !11
  %14 = tail call i32 (ptr, ptr, i32, i64, i64, ptr, ...) @H5E_printf_stack(ptr noundef nonnull @.str, ptr noundef nonnull @__func__.H5VLget_connector_id_by_value, i32 noundef 369, i64 noundef %12, i64 noundef %13, ptr noundef nonnull @.str.1) #4
  br label %.thread41

15:                                               ; preds = %._crit_edge, %1
  %16 = phi i8 [ %.pre, %._crit_edge ], [ %5, %1 ]
  %17 = load i8, ptr @H5VL_init_g, align 1, !tbaa !3, !range !7, !noundef !8
  %18 = trunc nuw i8 %17 to i1
  %19 = trunc nuw i8 %16 to i1
  %20 = select i1 %18, i1 true, i1 %19
  br i1 %20, label %28, label %21, !prof !9

21:                                               ; preds = %15
  store i8 1, ptr @H5VL_init_g, align 1, !tbaa !3
  %22 = tail call i32 @H5VL__init_package() #4
  %23 = icmp slt i32 %22, 0
  br i1 %23, label %24, label %28, !prof !22

24:                                               ; preds = %21
  store i8 0, ptr @H5VL_init_g, align 1, !tbaa !3
  %25 = load i64, ptr @H5E_FUNC_g, align 8, !tbaa !11
  %26 = load i64, ptr @H5E_CANTINIT_g, align 8, !tbaa !11
  %27 = tail call i32 (ptr, ptr, i32, i64, i64, ptr, ...) @H5E_printf_stack(ptr noundef nonnull @.str, ptr noundef nonnull @__func__.H5VLget_connector_id_by_value, i32 noundef 369, i64 noundef %25, i64 noundef %26, ptr noundef nonnull @.str.2) #4
  br label %.thread41

28:                                               ; preds = %15, %21
  %29 = call i32 @H5CX_push(ptr noundef nonnull %2) #4
  %30 = icmp slt i32 %29, 0
  br i1 %30, label %31, label %35, !prof !10

31:                                               ; preds = %28
  %32 = load i64, ptr @H5E_FUNC_g, align 8, !tbaa !11
  %33 = load i64, ptr @H5E_CANTSET_g, align 8, !tbaa !11
  %34 = call i32 (ptr, ptr, i32, i64, i64, ptr, ...) @H5E_printf_stack(ptr noundef nonnull @.str, ptr noundef nonnull @__func__.H5VLget_connector_id_by_value, i32 noundef 369, i64 noundef %32, i64 noundef %33, ptr noundef nonnull @.str.3) #4
  br label %.thread41

35:                                               ; preds = %28
  %36 = call i32 @H5E_clear_stack() #4
  %37 = call ptr @H5VL__get_connector_by_value(i32 noundef %0) #4
  %38 = icmp eq ptr %37, null
  br i1 %38, label %39, label %43

39:                                               ; preds = %35
  %40 = load i64, ptr @H5E_VOL_g, align 8, !tbaa !11
  %41 = load i64, ptr @H5E_CANTGET_g, align 8, !tbaa !11
  %42 = call i32 (ptr, ptr, i32, i64, i64, ptr, ...) @H5E_printf_stack(ptr noundef nonnull @.str, ptr noundef nonnull @__func__.H5VLget_connector_id_by_value, i32 noundef 373, i64 noundef %40, i64 noundef %41, ptr noundef nonnull @.str.15) #4
  br label %.thread47

43:                                               ; preds = %35
  %44 = call i64 @H5I_register(i32 noundef 9, ptr noundef nonnull %37, i1 noundef zeroext true) #4
  %45 = icmp slt i64 %44, 0
  br i1 %45, label %46, label %57

46:                                               ; preds = %43
  %47 = load i64, ptr @H5E_VOL_g, align 8, !tbaa !11
  %48 = load i64, ptr @H5E_CANTREGISTER_g, align 8, !tbaa !11
  %49 = call i32 (ptr, ptr, i32, i64, i64, ptr, ...) @H5E_printf_stack(ptr noundef nonnull @.str, ptr noundef nonnull @__func__.H5VLget_connector_id_by_value, i32 noundef 377, i64 noundef %47, i64 noundef %48, ptr noundef nonnull @.str.10) #4
  %50 = call i64 @H5VL_conn_dec_rc(ptr noundef nonnull %37) #4
  %51 = icmp slt i64 %50, 0
  br i1 %51, label %52, label %.thread47

52:                                               ; preds = %46
  %53 = load i64, ptr @H5E_VOL_g, align 8, !tbaa !11
  %54 = load i64, ptr @H5E_CANTDEC_g, align 8, !tbaa !11
  %55 = call i32 (ptr, ptr, i32, i64, i64, ptr, ...) @H5E_printf_stack(ptr noundef nonnull @.str, ptr noundef nonnull @__func__.H5VLget_connector_id_by_value, i32 noundef 384, i64 noundef %53, i64 noundef %54, ptr noundef nonnull @.str.7) #4
  br label %.thread47

.thread47:                                        ; preds = %39, %52, %46
  %56 = call i32 @H5CX_pop(i1 noundef zeroext true) #4
  br label %.thread41

57:                                               ; preds = %43
  %58 = call i32 @H5CX_pop(i1 noundef zeroext true) #4
  br label %60

.thread41:                                        ; preds = %31, %24, %11, %.thread47
  %59 = call i32 @H5E_dump_api_stack() #4
  br label %60

60:                                               ; preds = %57, %.thread41
  %.1163244 = phi i64 [ -1, %.thread41 ], [ %44, %57 ]
  call void @llvm.lifetime.end.p0(i64 480, ptr nonnull %2) #4
  ret i64 %.1163244
}